(dp1
S'output'
p2
S"<class 'sqlite3.OperationalError'> table Status already exists"
p3
sS'layer'
p4
S'/home/prasad/Rootpy/web2py-master/applications/ProPy_CRUD/models/db.py'
p5
sS'code'
p6
S'#Creating connection with SQLite Database\ndb=DAL("sqlite://storage.db")\n#Defining table Level\ndb.define_table(\'Level\',\n                Field(\'name\',unique=True),\n                format=\'%s(name)s\',\n                migrate=\'Level.table\'\n                )\ndb.define_table(\'Programmer\',\n                Field(\'username\',unique=True),\n                Field(\'password\',type=\'password\',notnull=True),\n                Field(\'level\',\'reference Level\',notnull=True),\n                format=\'%(username)s\',\n                migrate=\'Programmer.table\'\n                )\n\ndb.define_table(\'Programs\',\n                Field(\'problem_statement\',notnull=True),\n                Field(\'level\',\'reference Level\',notnull=True),\n                format=\'%(problem_statement)s\',\n                migrate=\'Programs.table\'\n                )\n\ndb.define_table(\'Admin\',\n                Field(\'admin_name\',unique=True),\n                format=\'%(admin_name)s\',\n                migrate=\'Admin.table\'\n                )\n\ndb.define_table(\'Status\',\n                Field(\'user_id\',\'reference Programmer\'),\n                Field(\'programs_id\',\'reference Programs\'),\n                Field(\'solution\',\'upload\'),\n                Field(\'status\',default=\'Pending\'),\n                Field(\'remarks\',default=\'none\'),\n                format=\'%(status)s\',\n                migrate=\'Status.table\'\n                )\n                \n\nlevel=[\'Not Specified\',\'Beginner\',\'Intermediate\',\'Expert\']\n\n\n"""db.define_table(\'Status\',\n                Field(\'problem_statement\',\'reference Programs\')\n"""\n\n""" ###Inserting data into Level####\n    for x in level:\n       db.Level.insert(name=x)\n       \n   ####Inserting data into Programs###\n   for x in range(100):\n       db.Programs.insert(problem_statement="Problem statement No " + str(x),level=1)\n       ### just have to change level=2 and 3 for adding programs to next leve\n"""\n'
p7
sS'snapshot'
p8
(dp9
S'exception'
p10
(dp11
S'__module__'
p12
S"'sqlite3'"
p13
sS'__getslice__'
p14
S"<method-wrapper '__getslice__' of OperationalError object>"
p15
sS'__str__'
p16
S"<method-wrapper '__str__' of OperationalError object>"
p17
sS'__reduce__'
p18
S'<built-in method __reduce__ of OperationalError object>'
p19
sS'__dict__'
p20
S'{}'
p21
sS'__sizeof__'
p22
S'<built-in method __sizeof__ of OperationalError object>'
p23
sS'__weakref__'
p24
S'None'
p25
sS'__init__'
p26
S"<method-wrapper '__init__' of OperationalError object>"
p27
sS'__setattr__'
p28
S"<method-wrapper '__setattr__' of OperationalError object>"
p29
sS'__reduce_ex__'
p30
S'<built-in method __reduce_ex__ of OperationalError object>'
p31
sS'__new__'
p32
S'<built-in method __new__ of type object>'
p33
sS'__format__'
p34
S'<built-in method __format__ of OperationalError object>'
p35
sS'__class__'
p36
S"<class 'sqlite3.OperationalError'>"
p37
sS'__doc__'
p38
S'None'
p39
sS'__getitem__'
p40
S"<method-wrapper '__getitem__' of OperationalError object>"
p41
sS'__setstate__'
p42
S'<built-in method __setstate__ of OperationalError object>'
p43
sS'__getattribute__'
p44
S"<method-wrapper '__getattribute__' of OperationalError object>"
p45
sS'args'
p46
S"('table Status already exists',)"
p47
sS'__subclasshook__'
p48
S'<built-in method __subclasshook__ of type object>'
p49
sS'__unicode__'
p50
S'<built-in method __unicode__ of OperationalError object>'
p51
sS'__delattr__'
p52
S"<method-wrapper '__delattr__' of OperationalError object>"
p53
sS'__repr__'
p54
S"<method-wrapper '__repr__' of OperationalError object>"
p55
sS'__hash__'
p56
S"<method-wrapper '__hash__' of OperationalError object>"
p57
ssS'evalue'
p58
S'table Status already exists'
p59
sS'request'
p60
cgluon.html
XML_unpickle
p61
(S's\xc1P\x00\x00<div><table><tr><td style="font-weight:bold;vertical-align:top;">ajax</td><td style="vertical-align:top;">:</td><td><div>False</div></td></tr><tr><td style="font-weight:bold;vertical-align:top;">application</td><td style="vertical-align:top;">:</td><td><div>ProPy_CRUD</div></td></tr><tr><td style="font-weight:bold;vertical-align:top;">args</td><td style="vertical-align:top;">:</td><td><div><table></table></div></td></tr><tr><td style="font-weight:bold;vertical-align:top;">body</td><td style="vertical-align:top;">:</td><td><div>&lt;cStringIO.StringO object at 0x7fb0c04d7228&gt;</div></td></tr><tr><td style="font-weight:bold;vertical-align:top;">cid</td><td style="vertical-align:top;">:</td><td><div>None</div></td></tr><tr><td style="font-weight:bold;vertical-align:top;">client</td><td style="vertical-align:top;">:</td><td><div>127.0.0.1</div></td></tr><tr><td style="font-weight:bold;vertical-align:top;">controller</td><td style="vertical-align:top;">:</td><td><div>default</div></td></tr><tr><td style="font-weight:bold;vertical-align:top;">cookies</td><td style="vertical-align:top;">:</td><td><div><table><tr><td style="font-weight:bold;vertical-align:top;">session_id_admin</td><td style="vertical-align:top;">:</td><td><div>127.0.0.1-538c848a-64ea-421f-893c-abf108a860b0<table><tr><td style="font-weight:bold;vertical-align:top;">comment</td><td style="vertical-align:top;">:</td><td><div></div></td></tr><tr><td style="font-weight:bold;vertical-align:top;">domain</td><td style="vertical-align:top;">:</td><td><div></div></td></tr><tr><td style="font-weight:bold;vertical-align:top;">expires</td><td style="vertical-align:top;">:</td><td><div></div></td></tr><tr><td style="font-weight:bold;vertical-align:top;">httponly</td><td style="vertical-align:top;">:</td><td><div></div></td></tr><tr><td style="font-weight:bold;vertical-align:top;">max-age</td><td style="vertical-align:top;">:</td><td><div></div></td></tr><tr><td style="font-weight:bold;vertical-align:top;">path</td><td style="vertical-align:top;">:</td><td><div></div></td></tr><tr><td style="font-weight:bold;vertical-align:top;">secure</td><td style="vertical-align:top;">:</td><td><div></div></td></tr><tr><td style="font-weight:bold;vertical-align:top;">version</td><td style="vertical-align:top;">:</td><td><div></div></td></tr></table></div></td></tr><tr><td style="font-weight:bold;vertical-align:top;">session_id_propy_crud</td><td style="vertical-align:top;">:</td><td><div>127.0.0.1-61753e57-d63b-4f95-9024-bfdc9a79f486<table><tr><td style="font-weight:bold;vertical-align:top;">comment</td><td style="vertical-align:top;">:</td><td><div></div></td></tr><tr><td style="font-weight:bold;vertical-align:top;">domain</td><td style="vertical-align:top;">:</td><td><div></div></td></tr><tr><td style="font-weight:bold;vertical-align:top;">expires</td><td style="vertical-align:top;">:</td><td><div></div></td></tr><tr><td style="font-weight:bold;vertical-align:top;">httponly</td><td style="vertical-align:top;">:</td><td><div></div></td></tr><tr><td style="font-weight:bold;vertical-align:top;">max-age</td><td style="vertical-align:top;">:</td><td><div></div></td></tr><tr><td style="font-weight:bold;vertical-align:top;">path</td><td style="vertical-align:top;">:</td><td><div></div></td></tr><tr><td style="font-weight:bold;vertical-align:top;">secure</td><td style="vertical-align:top;">:</td><td><div></div></td></tr><tr><td style="font-weight:bold;vertical-align:top;">version</td><td style="vertical-align:top;">:</td><td><div></div></td></tr></table></div></td></tr><tr><td style="font-weight:bold;vertical-align:top;">session_id_upload</td><td style="vertical-align:top;">:</td><td><div>127.0.0.1-dfdc6b07-33e8-4dc6-b8fd-35f4fd940cdc<table><tr><td style="font-weight:bold;vertical-align:top;">comment</td><td style="vertical-align:top;">:</td><td><div></div></td></tr><tr><td style="font-weight:bold;vertical-align:top;">domain</td><td style="vertical-align:top;">:</td><td><div></div></td></tr><tr><td style="font-weight:bold;vertical-align:top;">expires</td><td style="vertical-align:top;">:</td><td><div></div></td></tr><tr><td style="font-weight:bold;vertical-align:top;">httponly</td><td style="vertical-align:top;">:</td><td><div></div></td></tr><tr><td style="font-weight:bold;vertical-align:top;">max-age</td><td style="vertical-align:top;">:</td><td><div></div></td></tr><tr><td style="font-weight:bold;vertical-align:top;">path</td><td style="vertical-align:top;">:</td><td><div></div></td></tr><tr><td style="font-weight:bold;vertical-align:top;">secure</td><td style="vertical-align:top;">:</td><td><div></div></td></tr><tr><td style="font-weight:bold;vertical-align:top;">version</td><td style="vertical-align:top;">:</td><td><div></div></td></tr></table></div></td></tr><tr><td style="font-weight:bold;vertical-align:top;">session_id_welcome</td><td style="vertical-align:top;">:</td><td><div>127.0.0.1-690b3bd2-65d5-4cad-bf41-98293d9e6690<table><tr><td style="font-weight:bold;vertical-align:top;">comment</td><td style="vertical-align:top;">:</td><td><div></div></td></tr><tr><td style="font-weight:bold;vertical-align:top;">domain</td><td style="vertical-align:top;">:</td><td><div></div></td></tr><tr><td style="font-weight:bold;vertical-align:top;">expires</td><td style="vertical-align:top;">:</td><td><div></div></td></tr><tr><td style="font-weight:bold;vertical-align:top;">httponly</td><td style="vertical-align:top;">:</td><td><div></div></td></tr><tr><td style="font-weight:bold;vertical-align:top;">max-age</td><td style="vertical-align:top;">:</td><td><div></div></td></tr><tr><td style="font-weight:bold;vertical-align:top;">path</td><td style="vertical-align:top;">:</td><td><div></div></td></tr><tr><td style="font-weight:bold;vertical-align:top;">secure</td><td style="vertical-align:top;">:</td><td><div></div></td></tr><tr><td style="font-weight:bold;vertical-align:top;">version</td><td style="vertical-align:top;">:</td><td><div></div></td></tr></table></div></td></tr></table></div></td></tr><tr><td style="font-weight:bold;vertical-align:top;">env</td><td style="vertical-align:top;">:</td><td><div><table><tr><td style="font-weight:bold;vertical-align:top;">app_folders</td><td style="vertical-align:top;">:</td><td><div>set([&#x27;/home/prasad/Rootpy/web2py-master/applications/welcome/&#x27;, &#x27;/home/prasad/Rootpy/web2py-master/applications/upload/&#x27;, &#x27;/home/prasad/Rootpy/web2py-master/applications/ProPy_CRUD/&#x27;, &#x27;/home/prasad/Rootpy/web2py-master/applications/admin/&#x27;])</div></td></tr><tr><td style="font-weight:bold;vertical-align:top;">applications_parent</td><td style="vertical-align:top;">:</td><td><div>/home/prasad/Rootpy/web2py-master</div></td></tr><tr><td style="font-weight:bold;vertical-align:top;">cmd_args</td><td style="vertical-align:top;">:</td><td><div><table></table></div></td></tr><tr><td style="font-weight:bold;vertical-align:top;">cmd_options</td><td style="vertical-align:top;">:</td><td><div>&lt;Values at 0x33b3998: {&#x27;verbose&#x27;: False, &#x27;ip&#x27;: &#x27;127.0.0.1&#x27;, &#x27;with_scheduler&#x27;: False, &#x27;ips&#x27;: [&#x27;127.0.1.1&#x27;], &#x27;shutdown_timeout&#x27;: 5, &#x27;taskbar&#x27;: False, &#x27;with_coverage&#x27;: False, &#x27;port&#x27;: 8000, &#x27;maxthreads&#x27;: None, &#x27;softcron&#x27;: False, &#x27;server_name&#x27;: &#x27;Rootpy&#x27;, &#x27;bpython&#x27;: False, &#x27;nogui&#x27;: True, &#x27;pid_filename&#x27;: &#x27;httpserver.pid&#x27;, &#x27;extcron&#x27;: False, &#x27;runcron&#x27;: False, &#x27;run_system_tests&#x27;: False, &#x27;test&#x27;: None, &#x27;folder&#x27;: &#x27;/home/prasad/Rootpy/web2py-master&#x27;, &#x27;config&#x27;: &#x27;&#x27;, &#x27;minthreads&#x27;: None, &#x27;winservice&#x27;: &#x27;&#x27;, &#x27;shell&#x27;: None, &#x27;run&#x27;: &#x27;&#x27;, &#x27;log_filename&#x27;: &#x27;httpserver.log&#x27;, &#x27;debuglevel&#x27;: 30, &#x27;args&#x27;: [&#x27;&#x27;], &#x27;socket_timeout&#x27;: 5, &#x27;ssl_ca_certificate&#x27;: None, &#x27;scheduler&#x27;: None, &#x27;profiler_filename&#x27;: None, &#x27;ssl_private_key&#x27;: &#x27;&#x27;, &#x27;scheduler_groups&#x27;: None, &#x27;password&#x27;: &#x27;root@&#x27;, &#x27;request_queue_size&#x27;: 5, &#x27;ssl_certificate&#x27;: &#x27;&#x27;, &#x27;cronjob&#x27;: False, &#x27;numthreads&#x27;: None, &#x27;quiet&#x27;: False, &#x27;interfaces&#x27;: None, &#x27;import_models&#x27;: False, &#x27;timeout&#x27;: 10, &#x27;plain&#x27;: False, &#x27;nobanner&#x27;: False}&gt;</div></td></tr><tr><td style="font-weight:bold;vertical-align:top;">db_sessions</td><td style="vertical-align:top;">:</td><td><div>set([])</div></td></tr><tr><td style="font-weight:bold;vertical-align:top;">debugging</td><td style="vertical-align:top;">:</td><td><div>True</div></td></tr><tr><td style="font-weight:bold;vertical-align:top;">gluon_parent</td><td style="vertical-align:top;">:</td><td><div>/home/prasad/Rootpy/web2py-master</div></td></tr><tr><td style="font-weight:bold;vertical-align:top;">http_accept</td><td style="vertical-align:top;">:</td><td><div>text/html,application/xhtml+xml,application/xml;q=0.9,*/*;q=0.8</div></td></tr><tr><td style="font-weight:bold;vertical-align:top;">http_accept_encoding</td><td style="vertical-align:top;">:</td><td><div>gzip, deflate</div></td></tr><tr><td style="font-weight:bold;vertical-align:top;">http_accept_language</td><td style="vertical-align:top;">:</td><td><div>en-US,en;q=0.5</div></td></tr><tr><td style="font-weight:bold;vertical-align:top;">http_connection</td><td style="vertical-align:top;">:</td><td><div>keep-alive</div></td></tr><tr><td style="font-weight:bold;vertical-align:top;">http_cookie</td><td style="vertical-align:top;">:</td><td><div>session_id_welcome=127.0.0.1-690b3bd2-65d5-4cad-bf41-98293d9e6690; session_id_admin=127.0.0.1-538c848a-64ea-421f-893c-abf108a860b0; session_id_propy_crud=127.0.0.1-61753e57-d63b-4f95-9024-bfdc9a79f486; session_id_upload=127.0.0.1-dfdc6b07-33e8-4dc6-b8fd-35f4fd940cdc</div></td></tr><tr><td style="font-weight:bold;vertical-align:top;">http_host</td><td style="vertical-align:top;">:</td><td><div>127.0.0.1:8000</div></td></tr><tr><td style="font-weight:bold;vertical-align:top;">http_referer</td><td style="vertical-align:top;">:</td><td><div>http://127.0.0.1:8000/admin/default/edit/ProPy_CRUD/models/db.py?id=models__db__py</div></td></tr><tr><td style="font-weight:bold;vertical-align:top;">http_user_agent</td><td style="vertical-align:top;">:</td><td><div>Mozilla/5.0 (X11; Ubuntu; Linux x86_64; rv:22.0) Gecko/20100101 Firefox/22.0</div></td></tr><tr><td style="font-weight:bold;vertical-align:top;">is_jython</td><td style="vertical-align:top;">:</td><td><div>False</div></td></tr><tr><td style="font-weight:bold;vertical-align:top;">is_pypy</td><td style="vertical-align:top;">:</td><td><div>False</div></td></tr><tr><td style="font-weight:bold;vertical-align:top;">local_hosts</td><td style="vertical-align:top;">:</td><td><div><table><tr><td><div>::1</div></td></tr><tr><td><div>127.0.1.1</div></td></tr><tr><td><div>::ffff:127.0.0.1</div></td></tr><tr><td><div>127.0.0.1</div></td></tr><tr><td><div>Rootpy</div></td></tr></table></div></td></tr><tr><td style="font-weight:bold;vertical-align:top;">path_info</td><td style="vertical-align:top;">:</td><td><div>/ProPy_CRUD/default/admin</div></td></tr><tr><td style="font-weight:bold;vertical-align:top;">query_string</td><td style="vertical-align:top;">:</td><td><div></div></td></tr><tr><td style="font-weight:bold;vertical-align:top;">remote_addr</td><td style="vertical-align:top;">:</td><td><div>127.0.0.1</div></td></tr><tr><td style="font-weight:bold;vertical-align:top;">remote_port</td><td style="vertical-align:top;">:</td><td><div>60543</div></td></tr><tr><td style="font-weight:bold;vertical-align:top;">request_method</td><td style="vertical-align:top;">:</td><td><div>GET</div></td></tr><tr><td style="font-weight:bold;vertical-align:top;">request_uri</td><td style="vertical-align:top;">:</td><td><div>/ProPy_CRUD/default/admin</div></td></tr><tr><td style="font-weight:bold;vertical-align:top;">script_name</td><td style="vertical-align:top;">:</td><td><div></div></td></tr><tr><td style="font-weight:bold;vertical-align:top;">server_name</td><td style="vertical-align:top;">:</td><td><div>Rootpy</div></td></tr><tr><td style="font-weight:bold;vertical-align:top;">server_port</td><td style="vertical-align:top;">:</td><td><div>8000</div></td></tr><tr><td style="font-weight:bold;vertical-align:top;">server_protocol</td><td style="vertical-align:top;">:</td><td><div>HTTP/1.1</div></td></tr><tr><td style="font-weight:bold;vertical-align:top;">server_software</td><td style="vertical-align:top;">:</td><td><div>Rocket 1.2.6</div></td></tr><tr><td style="font-weight:bold;vertical-align:top;">web2py_path</td><td style="vertical-align:top;">:</td><td><div>/home/prasad/Rootpy/web2py-master</div></td></tr><tr><td style="font-weight:bold;vertical-align:top;">web2py_version</td><td style="vertical-align:top;">:</td><td><div>2.6.0-development+timestamp.2013.07.14.16.51.54</div></td></tr><tr><td style="font-weight:bold;vertical-align:top;">wsgi_errors</td><td style="vertical-align:top;">:</td><td><div>&lt;open file &#x27;&lt;stderr&gt;&#x27;, mode &#x27;w&#x27; at 0x7fb0ced141e0&gt;</div></td></tr><tr><td style="font-weight:bold;vertical-align:top;">wsgi_file_wrapper</td><td style="vertical-align:top;">:</td><td><div>&lt;class wsgiref.util.FileWrapper at 0x33924c8&gt;</div></td></tr><tr><td style="font-weight:bold;vertical-align:top;">wsgi_input</td><td style="vertical-align:top;">:</td><td><div>&lt;socket._fileobject object at 0x7fb0a4426dd0&gt;</div></td></tr><tr><td style="font-weight:bold;vertical-align:top;">wsgi_multiprocess</td><td style="vertical-align:top;">:</td><td><div>False</div></td></tr><tr><td style="font-weight:bold;vertical-align:top;">wsgi_multithread</td><td style="vertical-align:top;">:</td><td><div>True</div></td></tr><tr><td style="font-weight:bold;vertical-align:top;">wsgi_run_once</td><td style="vertical-align:top;">:</td><td><div>False</div></td></tr><tr><td style="font-weight:bold;vertical-align:top;">wsgi_url_scheme</td><td style="vertical-align:top;">:</td><td><div>http</div></td></tr><tr><td style="font-weight:bold;vertical-align:top;">wsgi_version</td><td style="vertical-align:top;">:</td><td><div><table><tr><td><div>1</div></td></tr><tr><td><div>0</div></td></tr></table></div></td></tr></table></div></td></tr><tr><td style="font-weight:bold;vertical-align:top;">extension</td><td style="vertical-align:top;">:</td><td><div>html</div></td></tr><tr><td style="font-weight:bold;vertical-align:top;">folder</td><td style="vertical-align:top;">:</td><td><div>/home/prasad/Rootpy/web2py-master/applications/ProPy_CRUD/</div></td></tr><tr><td style="font-weight:bold;vertical-align:top;">function</td><td style="vertical-align:top;">:</td><td><div>admin</div></td></tr><tr><td style="font-weight:bold;vertical-align:top;">get_vars</td><td style="vertical-align:top;">:</td><td><div><table></table></div></td></tr><tr><td style="font-weight:bold;vertical-align:top;">global_settings</td><td style="vertical-align:top;">:</td><td><div><table><tr><td style="font-weight:bold;vertical-align:top;">app_folders</td><td style="vertical-align:top;">:</td><td><div>set([&#x27;/home/prasad/Rootpy/web2py-master/applications/welcome/&#x27;, &#x27;/home/prasad/Rootpy/web2py-master/applications/upload/&#x27;, &#x27;/home/prasad/Rootpy/web2py-master/applications/ProPy_CRUD/&#x27;, &#x27;/home/prasad/Rootpy/web2py-master/applications/admin/&#x27;])</div></td></tr><tr><td style="font-weight:bold;vertical-align:top;">applications_parent</td><td style="vertical-align:top;">:</td><td><div>/home/prasad/Rootpy/web2py-master</div></td></tr><tr><td style="font-weight:bold;vertical-align:top;">cmd_args</td><td style="vertical-align:top;">:</td><td><div><table></table></div></td></tr><tr><td style="font-weight:bold;vertical-align:top;">cmd_options</td><td style="vertical-align:top;">:</td><td><div>&lt;Values at 0x33b3998: {&#x27;verbose&#x27;: False, &#x27;ip&#x27;: &#x27;127.0.0.1&#x27;, &#x27;with_scheduler&#x27;: False, &#x27;ips&#x27;: [&#x27;127.0.1.1&#x27;], &#x27;shutdown_timeout&#x27;: 5, &#x27;taskbar&#x27;: False, &#x27;with_coverage&#x27;: False, &#x27;port&#x27;: 8000, &#x27;maxthreads&#x27;: None, &#x27;softcron&#x27;: False, &#x27;server_name&#x27;: &#x27;Rootpy&#x27;, &#x27;bpython&#x27;: False, &#x27;nogui&#x27;: True, &#x27;pid_filename&#x27;: &#x27;httpserver.pid&#x27;, &#x27;extcron&#x27;: False, &#x27;runcron&#x27;: False, &#x27;run_system_tests&#x27;: False, &#x27;test&#x27;: None, &#x27;folder&#x27;: &#x27;/home/prasad/Rootpy/web2py-master&#x27;, &#x27;config&#x27;: &#x27;&#x27;, &#x27;minthreads&#x27;: None, &#x27;winservice&#x27;: &#x27;&#x27;, &#x27;shell&#x27;: None, &#x27;run&#x27;: &#x27;&#x27;, &#x27;log_filename&#x27;: &#x27;httpserver.log&#x27;, &#x27;debuglevel&#x27;: 30, &#x27;args&#x27;: [&#x27;&#x27;], &#x27;socket_timeout&#x27;: 5, &#x27;ssl_ca_certificate&#x27;: None, &#x27;scheduler&#x27;: None, &#x27;profiler_filename&#x27;: None, &#x27;ssl_private_key&#x27;: &#x27;&#x27;, &#x27;scheduler_groups&#x27;: None, &#x27;password&#x27;: &#x27;root@&#x27;, &#x27;request_queue_size&#x27;: 5, &#x27;ssl_certificate&#x27;: &#x27;&#x27;, &#x27;cronjob&#x27;: False, &#x27;numthreads&#x27;: None, &#x27;quiet&#x27;: False, &#x27;interfaces&#x27;: None, &#x27;import_models&#x27;: False, &#x27;timeout&#x27;: 10, &#x27;plain&#x27;: False, &#x27;nobanner&#x27;: False}&gt;</div></td></tr><tr><td style="font-weight:bold;vertical-align:top;">db_sessions</td><td style="vertical-align:top;">:</td><td><div>set([])</div></td></tr><tr><td style="font-weight:bold;vertical-align:top;">debugging</td><td style="vertical-align:top;">:</td><td><div>True</div></td></tr><tr><td style="font-weight:bold;vertical-align:top;">gluon_parent</td><td style="vertical-align:top;">:</td><td><div>/home/prasad/Rootpy/web2py-master</div></td></tr><tr><td style="font-weight:bold;vertical-align:top;">is_jython</td><td style="vertical-align:top;">:</td><td><div>False</div></td></tr><tr><td style="font-weight:bold;vertical-align:top;">is_pypy</td><td style="vertical-align:top;">:</td><td><div>False</div></td></tr><tr><td style="font-weight:bold;vertical-align:top;">local_hosts</td><td style="vertical-align:top;">:</td><td><div><table><tr><td><div>::1</div></td></tr><tr><td><div>127.0.1.1</div></td></tr><tr><td><div>::ffff:127.0.0.1</div></td></tr><tr><td><div>127.0.0.1</div></td></tr><tr><td><div>Rootpy</div></td></tr></table></div></td></tr><tr><td style="font-weight:bold;vertical-align:top;">web2py_version</td><td style="vertical-align:top;">:</td><td><div>2.6.0-development+timestamp.2013.07.14.16.51.54</div></td></tr></table></div></td></tr><tr><td style="font-weight:bold;vertical-align:top;">is_https</td><td style="vertical-align:top;">:</td><td><div>False</div></td></tr><tr><td style="font-weight:bold;vertical-align:top;">is_local</td><td style="vertical-align:top;">:</td><td><div>True</div></td></tr><tr><td style="font-weight:bold;vertical-align:top;">is_restful</td><td style="vertical-align:top;">:</td><td><div>False</div></td></tr><tr><td style="font-weight:bold;vertical-align:top;">now</td><td style="vertical-align:top;">:</td><td><div>datetime.datetime(2013, 7, 17, 0, 10, 33, 873291)</div></td></tr><tr><td style="font-weight:bold;vertical-align:top;">post_vars</td><td style="vertical-align:top;">:</td><td><div><table></table></div></td></tr><tr><td style="font-weight:bold;vertical-align:top;">raw_args</td><td style="vertical-align:top;">:</td><td><div></div></td></tr><tr><td style="font-weight:bold;vertical-align:top;">raw_extension</td><td style="vertical-align:top;">:</td><td><div>None</div></td></tr><tr><td style="font-weight:bold;vertical-align:top;">url</td><td style="vertical-align:top;">:</td><td><div>/ProPy_CRUD/default/admin</div></td></tr><tr><td style="font-weight:bold;vertical-align:top;">utcnow</td><td style="vertical-align:top;">:</td><td><div>datetime.datetime(2013, 7, 16, 18, 40, 33, 873392)</div></td></tr><tr><td style="font-weight:bold;vertical-align:top;">uuid</td><td style="vertical-align:top;">:</td><td><div>ProPy_CRUD/127.0.0.1.2013-07-17.00-10-33.674d113f-e74c-496b-8b50-66f606b8fcd3</div></td></tr><tr><td style="font-weight:bold;vertical-align:top;">vars</td><td style="vertical-align:top;">:</td><td><div><table></table></div></td></tr><tr><td style="font-weight:bold;vertical-align:top;">wsgi</td><td style="vertical-align:top;">:</td><td><div>&lt;gluon.main.LazyWSGI object at 0x7fb0c07b7650&gt;</div></td></tr></table></div>'
tRp62
sS'frames'
p63
(lp64
(dp65
S'file'
p66
S'/home/prasad/Rootpy/web2py-master/gluon/restricted.py'
p67
sS'dump'
p68
(dp69
S'environment'
p70
S"{'A': <class 'gluon.html.A'>, 'ANY_OF': <class 'gluon.validators.ANY_OF'>, 'B': <class 'gluon.html.B'>, 'BEAUTIFY': <class 'gluon.html.BEAUTIFY'>, 'BODY': <class 'gluon.html.BODY'>, 'BR': <class 'gluon.html.BR'>, 'BUTTON': <class 'gluon.html.BUTTON'>, 'CAT': <class 'gluon.html.CAT'>, 'CENTER': <class 'gluon.html.CENTER'>, 'CLEANUP': <class 'gluon.validators.CLEANUP'>, ...}"
p71
sS'ccode'
p72
S'<code object <module> at 0x7fb0a44268b0, file "/...er/applications/ProPy_CRUD/models/db.py", line 2>'
p73
ssS'lnum'
p74
I212
sS'lines'
p75
(dp76
I207
S'    try:'
p77
sI208
S'        if isinstance(code, types.CodeType):'
p78
sI209
S'            ccode = code'
p79
sI210
S'        else:'
p80
sI211
S'            ccode = compile2(code, layer)'
p81
sI212
S'        exec ccode in environment'
p82
sI213
S'    except HTTP:'
p83
sI214
S'        raise'
p84
sI215
S'    except RestrictedError:'
p85
sI216
S'        # do not encapsulate (obfuscate) the original RestrictedError'
p86
ssS'call'
p87
S'(code=\'#Creating connection with SQLite Database\\ndb=DAL...vel=2 and 3 for adding programs to next leve\\n"""\\n\', environment={\'A\': <class \'gluon.html.A\'>, \'ANY_OF\': <class \'gluon.validators.ANY_OF\'>, \'B\': <class \'gluon.html.B\'>, \'BEAUTIFY\': <class \'gluon.html.BEAUTIFY\'>, \'BODY\': <class \'gluon.html.BODY\'>, \'BR\': <class \'gluon.html.BR\'>, \'BUTTON\': <class \'gluon.html.BUTTON\'>, \'CAT\': <class \'gluon.html.CAT\'>, \'CENTER\': <class \'gluon.html.CENTER\'>, \'CLEANUP\': <class \'gluon.validators.CLEANUP\'>, ...}, layer=\'/home/prasad/Rootpy/web2py-master/applications/ProPy_CRUD/models/db.py\')'
p88
sS'func'
p89
S'restricted'
p90
sa(dp91
g66
S'/home/prasad/Rootpy/web2py-master/applications/ProPy_CRUD/models/db.py'
p92
sg68
(dp93
S'migrate'
p94
S'undefined'
p95
ssg74
I37
sg75
(dp96
I32
S"                Field('programs_id','reference Programs'),"
p97
sI33
S"                Field('solution','upload'),"
p98
sI34
S"                Field('status',default='Pending'),"
p99
sI35
S"                Field('remarks',default='none'),"
p100
sI36
S"                format='%(status)s',"
p101
sI37
S"                migrate='Status.table'"
p102
sI38
S'                )'
p103
sI39
S''
sI40
S''
sI41
S"level=['Not Specified','Beginner','Intermediate','Expert']"
p104
ssg87
S'()'
p105
sg89
S'<module>'
p106
sa(dp107
g66
S'/home/prasad/Rootpy/web2py-master/gluon/dal.py'
p108
sg68
(dp109
S'fields'
p110
S'(<gluon.dal.Field object>, <gluon.dal.Field object>, <gluon.dal.Field object>, <gluon.dal.Field object>, <gluon.dal.Field object>)'
p111
sS'self'
p112
S'<DAL uri="sqlite://storage.db">'
p113
sS'args'
p114
S"{'format': '%(status)s', 'migrate': 'Status.table'}"
p115
sS'tablename'
p116
S"'Status'"
p117
sS'table'
p118
g95
sS'self.lazy_define_table'
p119
S'<bound method DAL.lazy_define_table of <DAL uri="sqlite://storage.db">>'
p120
ssg74
I7755
sg75
(dp121
I7750
S'                    % (tablename,invalid_args))'
p122
sI7751
S'        if self._lazy_tables and not tablename in self._LAZY_TABLES:'
p123
sI7752
S'            self._LAZY_TABLES[tablename] = (tablename,fields,args)'
p124
sI7753
S'            table = None'
p125
sI7754
S'        else:'
p126
sI7755
S'            table = self.lazy_define_table(tablename,*fields,**args)'
p127
sI7756
S'        if not tablename in self.tables:'
p128
sI7757
S'            self.tables.append(tablename)'
p129
sI7758
S'        return table'
p130
sI7759
S''
ssg87
S'(self=<DAL uri="sqlite://storage.db">, tablename=\'Status\', *fields=(<gluon.dal.Field object>, <gluon.dal.Field object>, <gluon.dal.Field object>, <gluon.dal.Field object>, <gluon.dal.Field object>), **args={\'format\': \'%(status)s\', \'migrate\': \'Status.table\'})'
p131
sg89
S'define_table'
p132
sa(dp133
g66
S'/home/prasad/Rootpy/web2py-master/gluon/dal.py'
p134
sg68
(dp135
S'polymodel'
p136
S'None'
p137
ssg74
I7792
sg75
(dp138
I7787
S'            try:'
p139
sI7788
S'                GLOBAL_LOCKER.acquire()'
p140
sI7789
S'                self._lastsql = self._adapter.create_table('
p141
sI7790
S'                    table,migrate=migrate,'
p142
sI7791
S'                    fake_migrate=fake_migrate,'
p143
sI7792
S'                    polymodel=polymodel)'
p144
sI7793
S'            finally:'
p145
sI7794
S'                GLOBAL_LOCKER.release()'
p146
sI7795
S'        else:'
p147
sI7796
S'            table._dbt = None'
p148
ssg87
S'(self=<DAL uri="sqlite://storage.db">, tablename=\'Status\', *fields=(<gluon.dal.Field object>, <gluon.dal.Field object>, <gluon.dal.Field object>, <gluon.dal.Field object>, <gluon.dal.Field object>), **args={\'format\': \'%(status)s\', \'migrate\': \'Status.table\'})'
p149
sg89
S'lazy_define_table'
p150
sa(dp151
g66
S'/home/prasad/Rootpy/web2py-master/gluon/dal.py'
p152
sg68
(dp153
S'query'
p154
S"'CREATE TABLE Status(\\n    id INTEGER PRIMARY KEY ...),\\n    status CHAR(512),\\n    remarks CHAR(512)\\n);'"
p155
sS'self'
p156
S'<gluon.dal.SQLiteAdapter object>'
p157
sS'table'
p158
S'<Table Status (id,user_id,programs_id,solution,status,remarks)>'
p159
sS'self.create_sequence_and_triggers'
p160
S'<bound method SQLiteAdapter.create_sequence_and_triggers of <gluon.dal.SQLiteAdapter object>>'
p161
ssg74
I963
sg75
(dp162
I960
S'                               % datetime.datetime.today().isoformat())'
p163
sI961
S"                logfile.write(query + '\\n')"
p164
sI962
S'            if not fake_migrate:'
p165
sI963
S'                self.create_sequence_and_triggers(query,table)'
p166
sI964
S'                table._db.commit()'
p167
sI965
S'                # Postgres geom fields are added now,'
p168
sI966
S'                # after the table has been created'
p169
sI967
S'                for query in postcreation_fields:'
p170
sI958
S'            if table._dbt:'
p171
sI959
S"                logfile.write('timestamp: %s\\n'"
p172
ssg87
S"(self=<gluon.dal.SQLiteAdapter object>, table=<Table Status (id,user_id,programs_id,solution,status,remarks)>, migrate='Status.table', fake_migrate=False, polymodel=None)"
p173
sg89
S'create_table'
p174
sa(dp175
g66
S'/home/prasad/Rootpy/web2py-master/gluon/dal.py'
p176
sg68
(dp177
S'query'
p178
S"'CREATE TABLE Status(\\n    id INTEGER PRIMARY KEY ...),\\n    status CHAR(512),\\n    remarks CHAR(512)\\n);'"
p179
sS'self'
p180
S'<gluon.dal.SQLiteAdapter object>'
p181
sS'self.execute'
p182
S'<bound method SQLiteAdapter.execute of <gluon.dal.SQLiteAdapter object>>'
p183
ssg74
I1781
sg75
(dp184
I1776
S''
sI1777
S'    def constraint_name(self, table, fieldname):'
p185
sI1778
S"        return '%s_%s__constraint' % (table,fieldname)"
p186
sI1779
S''
sI1780
S'    def create_sequence_and_triggers(self, query, table, **args):'
p187
sI1781
S'        self.execute(query)'
p188
sI1782
S''
sI1783
S'    def log_execute(self, *a, **b):'
p189
sI1784
S'        if not self.connection: return None'
p190
sI1785
S'        command = a[0]'
p191
ssg87
S"(self=<gluon.dal.SQLiteAdapter object>, query='CREATE TABLE Status(\\n    id INTEGER PRIMARY KEY ...),\\n    status CHAR(512),\\n    remarks CHAR(512)\\n);', table=<Table Status (id,user_id,programs_id,solution,status,remarks)>, **args={})"
p192
sg89
S'create_sequence_and_triggers'
p193
sa(dp194
g66
S'/home/prasad/Rootpy/web2py-master/gluon/dal.py'
p195
sg68
(dp196
S'a'
S"('CREATE TABLE Status(\\n    id INTEGER PRIMARY KEY ...),\\n    status CHAR(512),\\n    remarks CHAR(512)\\n);',)"
p197
sS'self'
p198
S'<gluon.dal.SQLiteAdapter object>'
p199
sS'b'
g21
sS'self.log_execute'
p200
S'<bound method SQLiteAdapter.log_execute of <gluon.dal.SQLiteAdapter object>>'
p201
ssg74
I1798
sg75
(dp202
I1793
S'        self.db._timings.append((command,time.time()-t0))'
p203
sI1794
S'        del self.db._timings[:-TIMINGSSIZE]'
p204
sI1795
S'        return ret'
p205
sI1796
S''
sI1797
S'    def execute(self, *a, **b):'
p206
sI1798
S'        return self.log_execute(*a, **b)'
p207
sI1799
S''
sI1800
S'    def represent(self, obj, fieldtype):'
p208
sI1801
S'        field_is_type = fieldtype.startswith'
p209
sI1802
S'        if isinstance(obj, CALLABLETYPES):'
p210
ssg87
S"(self=<gluon.dal.SQLiteAdapter object>, *a=('CREATE TABLE Status(\\n    id INTEGER PRIMARY KEY ...),\\n    status CHAR(512),\\n    remarks CHAR(512)\\n);',), **b={})"
p211
sg89
S'execute'
p212
sa(dp213
g66
S'/home/prasad/Rootpy/web2py-master/gluon/dal.py'
p214
sg68
(dp215
S'a'
S"('CREATE TABLE Status(\\n    id INTEGER PRIMARY KEY ...),\\n    status CHAR(512),\\n    remarks CHAR(512)\\n);',)"
p216
sS'b'
g21
sS'self'
p217
S'<gluon.dal.SQLiteAdapter object>'
p218
sS'ret'
p219
g95
sS'self.cursor'
p220
S'<sqlite3.Cursor object>'
p221
sS'command'
p222
S"'CREATE TABLE Status(\\n    id INTEGER PRIMARY KEY ...),\\n    status CHAR(512),\\n    remarks CHAR(512)\\n);'"
p223
sS'self.cursor.execute'
p224
S'<built-in method execute of sqlite3.Cursor object>'
p225
ssg74
I1792
sg75
(dp226
I1792
S'        ret = self.cursor.execute(command, *a[1:], **b)'
p227
sI1793
S'        self.db._timings.append((command,time.time()-t0))'
p228
sI1794
S'        del self.db._timings[:-TIMINGSSIZE]'
p229
sI1795
S'        return ret'
p230
sI1796
S''
sI1787
S'            command = self.filter_sql_command(command)'
p231
sI1788
S'        if self.db._debug:'
p232
sI1789
S"            LOGGER.debug('SQL: %s' % command)"
p233
sI1790
S'        self.db._lastsql = command'
p234
sI1791
S'        t0 = time.time()'
p235
ssg87
S"(self=<gluon.dal.SQLiteAdapter object>, *a=('CREATE TABLE Status(\\n    id INTEGER PRIMARY KEY ...),\\n    status CHAR(512),\\n    remarks CHAR(512)\\n);',), **b={})"
p236
sg89
S'log_execute'
p237
sasS'pyver'
p238
S'Python 2.7.4: /usr/bin/python (prefix: /usr)'
p239
sS'session'
p240
g61
(S's\x1a\x00\x00\x00<div><table></table></div>'
tRp241
sS'etype'
p242
S"<class 'sqlite3.OperationalError'>"
p243
sS'date'
p244
S'Wed Jul 17 00:10:33 2013'
p245
sS'response'
p246
g61
(S's\xa8\x12\x00\x00<div><table><tr><td style="font-weight:bold;vertical-align:top;">body</td><td style="vertical-align:top;">:</td><td><div>&lt;cStringIO.StringO object at 0x7fb0a43ef998&gt;</div></td></tr><tr><td style="font-weight:bold;vertical-align:top;">cookies</td><td style="vertical-align:top;">:</td><td><div><table><tr><td style="font-weight:bold;vertical-align:top;">session_id_propy_crud</td><td style="vertical-align:top;">:</td><td><div>127.0.0.1-61753e57-d63b-4f95-9024-bfdc9a79f486<table><tr><td style="font-weight:bold;vertical-align:top;">comment</td><td style="vertical-align:top;">:</td><td><div></div></td></tr><tr><td style="font-weight:bold;vertical-align:top;">domain</td><td style="vertical-align:top;">:</td><td><div></div></td></tr><tr><td style="font-weight:bold;vertical-align:top;">expires</td><td style="vertical-align:top;">:</td><td><div></div></td></tr><tr><td style="font-weight:bold;vertical-align:top;">httponly</td><td style="vertical-align:top;">:</td><td><div></div></td></tr><tr><td style="font-weight:bold;vertical-align:top;">max-age</td><td style="vertical-align:top;">:</td><td><div></div></td></tr><tr><td style="font-weight:bold;vertical-align:top;">path</td><td style="vertical-align:top;">:</td><td><div>/</div></td></tr><tr><td style="font-weight:bold;vertical-align:top;">secure</td><td style="vertical-align:top;">:</td><td><div></div></td></tr><tr><td style="font-weight:bold;vertical-align:top;">version</td><td style="vertical-align:top;">:</td><td><div></div></td></tr></table></div></td></tr></table></div></td></tr><tr><td style="font-weight:bold;vertical-align:top;">delimiters</td><td style="vertical-align:top;">:</td><td><div><table><tr><td><div>{{</div></td></tr><tr><td><div>}}</div></td></tr></table></div></td></tr><tr><td style="font-weight:bold;vertical-align:top;">files</td><td style="vertical-align:top;">:</td><td><div><table></table></div></td></tr><tr><td style="font-weight:bold;vertical-align:top;">flash</td><td style="vertical-align:top;">:</td><td><div></div></td></tr><tr><td style="font-weight:bold;vertical-align:top;">generic_patterns</td><td style="vertical-align:top;">:</td><td><div><table></table></div></td></tr><tr><td style="font-weight:bold;vertical-align:top;">headers</td><td style="vertical-align:top;">:</td><td><div><table><tr><td style="font-weight:bold;vertical-align:top;">X-Powered-By</td><td style="vertical-align:top;">:</td><td><div>web2py</div></td></tr></table></div></td></tr><tr><td style="font-weight:bold;vertical-align:top;">menu</td><td style="vertical-align:top;">:</td><td><div><table></table></div></td></tr><tr><td style="font-weight:bold;vertical-align:top;">meta</td><td style="vertical-align:top;">:</td><td><div><table></table></div></td></tr><tr><td style="font-weight:bold;vertical-align:top;">models_to_run</td><td style="vertical-align:top;">:</td><td><div><table><tr><td><div>^\\w+\\.py$</div></td></tr><tr><td><div>^default/\\w+\\.py$</div></td></tr><tr><td><div>^default/admin/\\w+\\.py$</div></td></tr></table></div></td></tr><tr><td style="font-weight:bold;vertical-align:top;">postprocessing</td><td style="vertical-align:top;">:</td><td><div><table></table></div></td></tr><tr><td style="font-weight:bold;vertical-align:top;">session_cookie_expires</td><td style="vertical-align:top;">:</td><td><div>None</div></td></tr><tr><td style="font-weight:bold;vertical-align:top;">session_data_name</td><td style="vertical-align:top;">:</td><td><div>session_data_propy_crud</div></td></tr><tr><td style="font-weight:bold;vertical-align:top;">session_file</td><td style="vertical-align:top;">:</td><td><div>None</div></td></tr><tr><td style="font-weight:bold;vertical-align:top;">session_filename</td><td style="vertical-align:top;">:</td><td><div>/home/prasad/Rootpy/web2py-master/applications/ProPy_CRUD/sessions/127.0.0.1-61753e57-d63b-4f95-9024-bfdc9a79f486</div></td></tr><tr><td style="font-weight:bold;vertical-align:top;">session_id</td><td style="vertical-align:top;">:</td><td><div>127.0.0.1-61753e57-d63b-4f95-9024-bfdc9a79f486</div></td></tr><tr><td style="font-weight:bold;vertical-align:top;">session_id_name</td><td style="vertical-align:top;">:</td><td><div>session_id_propy_crud</div></td></tr><tr><td style="font-weight:bold;vertical-align:top;">session_new</td><td style="vertical-align:top;">:</td><td><div>False</div></td></tr><tr><td style="font-weight:bold;vertical-align:top;">session_storage_type</td><td style="vertical-align:top;">:</td><td><div>file</div></td></tr><tr><td style="font-weight:bold;vertical-align:top;">status</td><td style="vertical-align:top;">:</td><td><div>200</div></td></tr><tr><td style="font-weight:bold;vertical-align:top;">view</td><td style="vertical-align:top;">:</td><td><div>default/admin.html</div></td></tr></table></div>'
tRp247
sS'locals'
p248
(dp249
S'a'
S"('CREATE TABLE Status(\\n    id INTEGER PRIMARY KEY ...),\\n    status CHAR(512),\\n    remarks CHAR(512)\\n);',)"
p250
sS'self'
p251
S'<gluon.dal.SQLiteAdapter object>'
p252
sS'b'
g21
sS'command'
p253
S"'CREATE TABLE Status(\\n    id INTEGER PRIMARY KEY ...),\\n    status CHAR(512),\\n    remarks CHAR(512)\\n);'"
p254
sS't0'
p255
S'1374000033.958618'
p256
sssS'traceback'
p257
S'Traceback (most recent call last):\n  File "/home/prasad/Rootpy/web2py-master/gluon/restricted.py", line 212, in restricted\n    exec ccode in environment\n  File "/home/prasad/Rootpy/web2py-master/applications/ProPy_CRUD/models/db.py", line 37, in <module>\n    migrate=\'Status.table\'\n  File "/home/prasad/Rootpy/web2py-master/gluon/dal.py", line 7755, in define_table\n    table = self.lazy_define_table(tablename,*fields,**args)\n  File "/home/prasad/Rootpy/web2py-master/gluon/dal.py", line 7792, in lazy_define_table\n    polymodel=polymodel)\n  File "/home/prasad/Rootpy/web2py-master/gluon/dal.py", line 963, in create_table\n    self.create_sequence_and_triggers(query,table)\n  File "/home/prasad/Rootpy/web2py-master/gluon/dal.py", line 1781, in create_sequence_and_triggers\n    self.execute(query)\n  File "/home/prasad/Rootpy/web2py-master/gluon/dal.py", line 1798, in execute\n    return self.log_execute(*a, **b)\n  File "/home/prasad/Rootpy/web2py-master/gluon/dal.py", line 1792, in log_execute\n    ret = self.cursor.execute(command, *a[1:], **b)\nOperationalError: table Status already exists\n'
p258
s.